; Function Attrs: nounwind uwtable
define ptr @l___private_Lean_Compiler_LCNF_PassManager_0__Lean_Compiler_LCNF_PassInstaller_getPassInstallerUnsafe(ptr noundef %0, ptr noundef %1, ptr noundef %2, ptr noundef %3) local_unnamed_addr #1 {
  %5 = tail call ptr @lean_st_ref_get(ptr noundef %2, ptr noundef %3) #6
  %6 = getelementptr inbounds nuw i8, ptr %5, i64 8
  %7 = load ptr, ptr %6, align 8, !tbaa !10
  %8 = ptrtoint ptr %7 to i64
  %9 = and i64 %8, 1
  %.not = icmp eq i64 %9, 0
  br i1 %.not, label %10, label %lean_inc.exit24

10:                                               ; preds = %4
  %.val.i = load i32, ptr %7, align 4, !tbaa !4
  %11 = icmp sgt i32 %.val.i, 0
  br i1 %11, label %12, label %14, !prof !9

12:                                               ; preds = %10
  %13 = add nuw i32 %.val.i, 1
  store i32 %13, ptr %7, align 4, !tbaa !4
  br label %lean_inc.exit24

14:                                               ; preds = %10
  %.not.i29 = icmp eq i32 %.val.i, 0
  br i1 %.not.i29, label %lean_inc.exit24, label %15

15:                                               ; preds = %14
  tail call void @lean_inc_ref_cold(ptr noundef nonnull %7) #6
  br label %lean_inc.exit24

lean_inc.exit24:                                  ; preds = %15, %14, %12, %4
  %16 = getelementptr inbounds nuw i8, ptr %5, i64 16
  %17 = load ptr, ptr %16, align 8, !tbaa !10
  %18 = ptrtoint ptr %17 to i64
  %19 = and i64 %18, 1
  %.not36 = icmp eq i64 %19, 0
  br i1 %.not36, label %20, label %lean_inc.exit23

20:                                               ; preds = %lean_inc.exit24
  %.val.i30 = load i32, ptr %17, align 4, !tbaa !4
  %21 = icmp sgt i32 %.val.i30, 0
  br i1 %21, label %22, label %24, !prof !9

22:                                               ; preds = %20
  %23 = add nuw i32 %.val.i30, 1
  store i32 %23, ptr %17, align 4, !tbaa !4
  br label %lean_inc.exit23

24:                                               ; preds = %20
  %.not.i31 = icmp eq i32 %.val.i30, 0
  br i1 %.not.i31, label %lean_inc.exit23, label %25

25:                                               ; preds = %24
  tail call void @lean_inc_ref_cold(ptr noundef nonnull %17) #6
  br label %lean_inc.exit23

lean_inc.exit23:                                  ; preds = %25, %24, %22, %lean_inc.exit24
  %26 = ptrtoint ptr %5 to i64
  %27 = and i64 %26, 1
  %.not37 = icmp eq i64 %27, 0
  br i1 %.not37, label %28, label %lean_dec.exit22

28:                                               ; preds = %lean_inc.exit23
  %29 = load i32, ptr %5, align 4, !tbaa !4
  %30 = icmp sgt i32 %29, 1
  br i1 %30, label %31, label %33, !prof !9

31:                                               ; preds = %28
  %32 = add nsw i32 %29, -1
  store i32 %32, ptr %5, align 4, !tbaa !4
  br label %lean_dec.exit22

33:                                               ; preds = %28
  %.not.i = icmp eq i32 %29, 0
  br i1 %.not.i, label %lean_dec.exit22, label %34

34:                                               ; preds = %33
  tail call void @lean_dec_ref_cold(ptr noundef nonnull %5) #6
  br label %lean_dec.exit22

lean_dec.exit22:                                  ; preds = %34, %33, %31, %lean_inc.exit23
  %35 = getelementptr inbounds nuw i8, ptr %7, i64 8
  %36 = load ptr, ptr %35, align 8, !tbaa !10
  %37 = ptrtoint ptr %36 to i64
  %38 = and i64 %37, 1
  %.not38 = icmp eq i64 %38, 0
  br i1 %.not38, label %39, label %lean_inc.exit

39:                                               ; preds = %lean_dec.exit22
  %.val.i33 = load i32, ptr %36, align 4, !tbaa !4
  %40 = icmp sgt i32 %.val.i33, 0
  br i1 %40, label %41, label %43, !prof !9

41:                                               ; preds = %39
  %42 = add nuw i32 %.val.i33, 1
  store i32 %42, ptr %36, align 4, !tbaa !4
  br label %lean_inc.exit

43:                                               ; preds = %39
  %.not.i34 = icmp eq i32 %.val.i33, 0
  br i1 %.not.i34, label %lean_inc.exit, label %44

44:                                               ; preds = %43
  tail call void @lean_inc_ref_cold(ptr noundef nonnull %36) #6
  br label %lean_inc.exit

lean_inc.exit:                                    ; preds = %44, %43, %41, %lean_dec.exit22
  br i1 %.not, label %45, label %lean_dec.exit21

45:                                               ; preds = %lean_inc.exit
  %46 = load i32, ptr %7, align 4, !tbaa !4
  %47 = icmp sgt i32 %46, 1
  br i1 %47, label %48, label %50, !prof !9

48:                                               ; preds = %45
  %49 = add nsw i32 %46, -1
  store i32 %49, ptr %7, align 4, !tbaa !4
  br label %lean_dec.exit21

50:                                               ; preds = %45
  %.not.i25 = icmp eq i32 %46, 0
  br i1 %.not.i25, label %lean_dec.exit21, label %51

51:                                               ; preds = %50
  tail call void @lean_dec_ref_cold(ptr noundef nonnull %7) #6
  br label %lean_dec.exit21

lean_dec.exit21:                                  ; preds = %51, %50, %48, %lean_inc.exit
  %52 = getelementptr inbounds nuw i8, ptr %1, i64 24
  %53 = load ptr, ptr %52, align 8, !tbaa !10
  %54 = load ptr, ptr @l___private_Lean_Compiler_LCNF_PassManager_0__Lean_Compiler_LCNF_PassInstaller_getPassInstallerUnsafe___closed__4, align 8, !tbaa !10
  %55 = tail call ptr @l_Lean_Environment_evalConstCheck___rarg(ptr noundef %36, ptr noundef %53, ptr noundef %54, ptr noundef %0) #6
  %56 = tail call ptr @l_Lean_ofExcept___at___private_Lean_Compiler_LCNF_PassManager_0__Lean_Compiler_LCNF_PassInstaller_getPassInstallerUnsafe___spec__1(ptr noundef %55, ptr noundef %1, ptr noundef %2, ptr noundef %17)
  %57 = ptrtoint ptr %55 to i64
  %58 = and i64 %57, 1
  %.not39 = icmp eq i64 %58, 0
  br i1 %.not39, label %59, label %lean_dec.exit

59:                                               ; preds = %lean_dec.exit21
  %60 = load i32, ptr %55, align 4, !tbaa !4
  %61 = icmp sgt i32 %60, 1
  br i1 %61, label %62, label %64, !prof !9

62:                                               ; preds = %59
  %63 = add nsw i32 %60, -1
  store i32 %63, ptr %55, align 4, !tbaa !4
  br label %lean_dec.exit

64:                                               ; preds = %59
  %.not.i27 = icmp eq i32 %60, 0
  br i1 %.not.i27, label %lean_dec.exit, label %65

65:                                               ; preds = %64
  tail call void @lean_dec_ref_cold(ptr noundef nonnull %55) #6
  br label %lean_dec.exit

lean_dec.exit:                                    ; preds = %65, %64, %62, %lean_dec.exit21
  ret ptr %56
}